; Function Attrs: nounwind uwtable
define hidden void @je_ehooks_default_destroy_impl(ptr noundef %0, i64 noundef %1) local_unnamed_addr #1 {
  %3 = tail call zeroext i1 @je_extent_in_dss(ptr noundef %0) #6
  br i1 %3, label %5, label %4

4:                                                ; preds = %2
  tail call void @je_pages_unmap(ptr noundef %0, i64 noundef %1) #6
  br label %5

5:                                                ; preds = %4, %2
  ret void
}